target datalayout = "e-m:e-p270:32:32-p271:32:32-p272:64:64-i64:64-i128:128-f80:128-n8:16:32:64-S128"
target triple = "x86_64-pc-linux-gnu"

%struct.lv_area_t = type { i32, i32, i32, i32 }

; Function Attrs: nounwind uwtable
define void @lv_area_set_height(ptr noundef %0, i32 noundef %1) #0 {
  %3 = alloca ptr, align 8
  %4 = alloca i32, align 4
  store ptr %0, ptr %3, align 8, !tbaa !3
  store i32 %1, ptr %4, align 4, !tbaa !7
  %5 = load ptr, ptr %3, align 8, !tbaa !3
  %6 = getelementptr inbounds nuw %struct.lv_area_t, ptr %5, i32 0, i32 1
  %7 = load i32, ptr %6, align 4, !tbaa !11
  %8 = load i32, ptr %4, align 4, !tbaa !7
  %9 = add nsw i32 %7, %8
  %10 = sub nsw i32 %9, 1
  %11 = load ptr, ptr %3, align 8, !tbaa !3
  %12 = getelementptr inbounds nuw %struct.lv_area_t, ptr %11, i32 0, i32 3
  store i32 %10, ptr %12, align 4, !tbaa !13
  ret void
}